; Function Attrs: mustprogress nounwind uwtable
define dso_local void @_ZN5clang16ASTNameGenerator7getNameB5cxx11EPKNS_4DeclE(ptr dead_on_unwind noalias nonnull writable sret(%"class.std::__cxx11::basic_string") align 8 %0, ptr nocapture noundef nonnull readonly align 8 dereferenceable(8) %1, ptr noundef %2) local_unnamed_addr #1 align 2 {
  %4 = alloca %"class.llvm::raw_string_ostream", align 8
  %5 = load ptr, ptr %1, align 8
  call void @llvm.lifetime.start.p0(i64 56, ptr nonnull %4)
  tail call void @_ZNSt7__cxx1112basic_stringIcSt11char_traitsIcESaIcEEC1Ev(ptr noundef nonnull align 8 dereferenceable(32) %0) #20
  %6 = getelementptr inbounds nuw i8, ptr %4, i64 8
  store i32 0, ptr %6, align 8, !noalias !34
  %7 = getelementptr inbounds nuw i8, ptr %4, i64 40
  store i8 0, ptr %7, align 8, !noalias !34
  %8 = getelementptr inbounds nuw i8, ptr %4, i64 44
  store i32 1, ptr %8, align 4, !noalias !34
  %9 = getelementptr inbounds nuw i8, ptr %4, i64 16
  call void @llvm.memset.p0.i64(ptr noundef nonnull align 8 dereferenceable(24) %9, i8 0, i64 24, i1 false), !noalias !34
  store ptr getelementptr inbounds inrange(-16, 104) (i8, ptr @_ZTVN4llvm18raw_string_ostreamE, i64 16), ptr %4, align 8, !noalias !34
  %10 = getelementptr inbounds nuw i8, ptr %4, i64 48
  store ptr %0, ptr %10, align 8, !noalias !34
  call void @_ZN4llvm11raw_ostream16SetBufferAndModeEPcmNS0_10BufferKindE(ptr noundef nonnull align 8 dereferenceable(48) %4, ptr noundef null, i64 noundef 0, i32 noundef 0) #20
  %11 = call noundef zeroext i1 @_ZN5clang16ASTNameGenerator14Implementation9writeNameEPKNS_4DeclERN4llvm11raw_ostreamE(ptr noundef nonnull align 8 dereferenceable(520) %5, ptr noundef %2, ptr noundef nonnull align 8 dereferenceable(48) %4)
  call void @_ZN4llvm11raw_ostreamD2Ev(ptr noundef nonnull align 8 dereferenceable(48) %4) #20
  call void @llvm.lifetime.end.p0(i64 56, ptr nonnull %4)
  ret void
}